target datalayout = "e-m:e-p270:32:32-p271:32:32-p272:64:64-i64:64-i128:128-f80:128-n8:16:32:64-S128"
target triple = "x86_64-unknown-linux-gnu"

%"struct.google::SiteFlag" = type { ptr, ptr, i64, ptr }
%"class.std::__cxx11::basic_string" = type { %"struct.std::__cxx11::basic_string<char>::_Alloc_hider", i64, %union.anon }
%"struct.std::__cxx11::basic_string<char>::_Alloc_hider" = type { ptr }
%union.anon = type { i64, [8 x i8] }
%"class.proxygen::HTTPCodec" = type { ptr }
%"class.google::LogMessageVoidify" = type { i8 }
%"class.google::LogMessage" = type { ptr, ptr, %"struct.google::LogMessageTime" }
%"struct.google::LogMessageTime" = type { %struct.tm, i64, i32, i64 }
%struct.tm = type { i32, i32, i32, i32, i32, i32, i32, i32, i32, i64, ptr }
%"class.proxygen::HTTPParallelCodec" = type <{ %"class.proxygen::HTTPCodec", i8, [7 x i8], i64, i64, ptr, i64, i64, %"class.std::__cxx11::basic_string", i32, [4 x i8] }>
%"class.folly::Range" = type { ptr, ptr }

@_ZN3fLI7FLAGS_vE = external global i32, align 4
@.str = private unnamed_addr constant [134 x i8] c"generated/home/dtcxzyw/WorkSpace/Projects/compilers/llvm-opt-benchmark/bench/proxygen/proxygen/proxygen/lib/http/codec/HTTP2Codec.cpp\00", align 1
@_ZN8proxygen5http218kConnectionPrefaceB5cxx11E = external global %"class.std::__cxx11::basic_string", align 8
@_ZZN8proxygen10HTTP2Codec25generateConnectionPrefaceERN5folly10IOBufQueueEE8vlocal__ = internal global %"struct.google::SiteFlag" zeroinitializer, align 8
@.str.102 = private unnamed_addr constant [30 x i8] c"generating connection preface\00", align 1

; Function Attrs: mustprogress nounwind uwtable
define linkonce_odr noundef i64 @_ZNK5folly5RangeIPKcE4sizeEv(ptr noundef nonnull align 8 dereferenceable(16) %this) #5 comdat align 2 {
entry:
  %this.addr = alloca ptr, align 8
  store ptr %this, ptr %this.addr, align 8
  %this1 = load ptr, ptr %this.addr, align 8
  %e_ = getelementptr inbounds %"class.folly::Range", ptr %this1, i32 0, i32 1
  %0 = load ptr, ptr %e_, align 8
  %b_ = getelementptr inbounds %"class.folly::Range", ptr %this1, i32 0, i32 0
  %1 = load ptr, ptr %b_, align 8
  %sub.ptr.lhs.cast = ptrtoint ptr %0 to i64
  %sub.ptr.rhs.cast = ptrtoint ptr %1 to i64
  %sub.ptr.sub = sub i64 %sub.ptr.lhs.cast, %sub.ptr.rhs.cast
  ret i64 %sub.ptr.sub
}

; Function Attrs: mustprogress nounwind uwtable
define linkonce_odr noundef ptr @_ZNK5folly5RangeIPKcE4dataEv(ptr noundef nonnull align 8 dereferenceable(16) %this) #5 comdat align 2 {
entry:
  %this.addr = alloca ptr, align 8
  store ptr %this, ptr %this.addr, align 8
  %this1 = load ptr, ptr %this.addr, align 8
  %b_ = getelementptr inbounds %"class.folly::Range", ptr %this1, i32 0, i32 0
  %0 = load ptr, ptr %b_, align 8
  ret ptr %0
}

; Function Attrs: mustprogress uwtable
define linkonce_odr void @_ZN5folly10IOBufQueue6appendENS_5RangeIPKcEE(ptr noundef nonnull align 8 dereferenceable(72) %this, ptr %sp.coerce0, ptr %sp.coerce1) #4 comdat align 2 {
entry:
  %sp = alloca %"class.folly::Range", align 8
  %this.addr = alloca ptr, align 8
  %0 = getelementptr inbounds { ptr, ptr }, ptr %sp, i32 0, i32 0
  store ptr %sp.coerce0, ptr %0, align 8
  %1 = getelementptr inbounds { ptr, ptr }, ptr %sp, i32 0, i32 1
  store ptr %sp.coerce1, ptr %1, align 8
  store ptr %this, ptr %this.addr, align 8
  %this1 = load ptr, ptr %this.addr, align 8
  %call = call noundef ptr @_ZNK5folly5RangeIPKcE4dataEv(ptr noundef nonnull align 8 dereferenceable(16) %sp)
  %call2 = call noundef i64 @_ZNK5folly5RangeIPKcE4sizeEv(ptr noundef nonnull align 8 dereferenceable(16) %sp)
  call void @_ZN5folly10IOBufQueue6appendEPKvm(ptr noundef nonnull align 8 dereferenceable(72) %this1, ptr noundef %call, i64 noundef %call2)
  ret void
}

; Function Attrs: mustprogress nounwind uwtable
define linkonce_odr void @_ZN5folly5RangeIPKcEC2ISaIcES2_TnNS_6detail13IsCharPointerIT0_E10const_typeELi0EEERKNSt7__cxx1112basic_stringIcSt11char_traitsIcET_EE(ptr noundef nonnull align 8 dereferenceable(16) %this, ptr noundef nonnull align 8 dereferenceable(32) %str) unnamed_addr #5 comdat align 2 {
entry:
  %this.addr = alloca ptr, align 8
  %str.addr = alloca ptr, align 8
  store ptr %this, ptr %this.addr, align 8
  store ptr %str, ptr %str.addr, align 8
  %this1 = load ptr, ptr %this.addr, align 8
  %b_ = getelementptr inbounds %"class.folly::Range", ptr %this1, i32 0, i32 0
  %0 = load ptr, ptr %str.addr, align 8
  %call = call noundef ptr @_ZNKSt7__cxx1112basic_stringIcSt11char_traitsIcESaIcEE4dataEv(ptr noundef nonnull align 8 dereferenceable(32) %0) #3
  store ptr %call, ptr %b_, align 8
  %e_ = getelementptr inbounds %"class.folly::Range", ptr %this1, i32 0, i32 1
  %b_2 = getelementptr inbounds %"class.folly::Range", ptr %this1, i32 0, i32 0
  %1 = load ptr, ptr %b_2, align 8
  %2 = load ptr, ptr %str.addr, align 8
  %call3 = call noundef i64 @_ZNKSt7__cxx1112basic_stringIcSt11char_traitsIcESaIcEE4sizeEv(ptr noundef nonnull align 8 dereferenceable(32) %2) #3
  %add.ptr = getelementptr inbounds i8, ptr %1, i64 %call3
  store ptr %add.ptr, ptr %e_, align 8
  ret void
}

; Function Attrs: mustprogress nounwind uwtable
define linkonce_odr void @_ZN6google17LogMessageVoidifyanERSo(ptr noundef nonnull align 1 dereferenceable(1) %this, ptr noundef nonnull align 8 dereferenceable(8) %0) #5 comdat align 2 {
entry:
  %this.addr = alloca ptr, align 8
  %.addr = alloca ptr, align 8
  store ptr %this, ptr %this.addr, align 8
  store ptr %0, ptr %.addr, align 8
  ret void
}

; Function Attrs: mustprogress nounwind uwtable
define linkonce_odr void @_ZN6google17LogMessageVoidifyC2Ev(ptr noundef nonnull align 1 dereferenceable(1) %this) unnamed_addr #5 comdat align 2 {
entry:
  %this.addr = alloca ptr, align 8
  store ptr %this, ptr %this.addr, align 8
  ret void
}

; Function Attrs: mustprogress uwtable
define noundef i64 @_ZN8proxygen10HTTP2Codec25generateConnectionPrefaceERN5folly10IOBufQueueE(ptr noundef nonnull align 8 dereferenceable(1062) %this, ptr noundef nonnull align 8 dereferenceable(72) %writeBuf) unnamed_addr #4 align 2 personality ptr @__gxx_personality_v0 {
entry:
  %retval = alloca i64, align 8
  %this.addr = alloca ptr, align 8
  %writeBuf.addr = alloca ptr, align 8
  %verbose_level__ = alloca i32, align 4
  %tmp = alloca i8, align 1
  %ref.tmp = alloca %"class.google::LogMessageVoidify", align 1
  %ref.tmp6 = alloca %"class.google::LogMessage", align 8
  %cleanup.cond = alloca i1, align 1
  %exn.slot = alloca ptr, align 8
  %ehselector.slot = alloca i32, align 4
  %agg.tmp = alloca %"class.folly::Range", align 8
  store ptr %this, ptr %this.addr, align 8
  store ptr %writeBuf, ptr %writeBuf.addr, align 8
  %this1 = load ptr, ptr %this.addr, align 8
  %transportDirection_ = getelementptr inbounds %"class.proxygen::HTTPParallelCodec", ptr %this1, i32 0, i32 1
  %0 = load i8, ptr %transportDirection_, align 8
  %cmp = icmp eq i8 %0, 1
  br i1 %cmp, label %if.then, label %if.end

if.then:                                          ; preds = %entry
  store i32 4, ptr %verbose_level__, align 4
  %1 = load ptr, ptr @_ZZN8proxygen10HTTP2Codec25generateConnectionPrefaceERN5folly10IOBufQueueEE8vlocal__, align 8
  %cmp2 = icmp eq ptr %1, null
  store i1 false, ptr %cleanup.cond, align 1
  br i1 %cmp2, label %cond.true, label %cond.false

cond.true:                                        ; preds = %if.then
  %2 = load i32, ptr %verbose_level__, align 4
  %call = call noundef zeroext i1 @_ZN6google11InitVLOG3__EPNS_8SiteFlagEPiPKci(ptr noundef @_ZZN8proxygen10HTTP2Codec25generateConnectionPrefaceERN5folly10IOBufQueueEE8vlocal__, ptr noundef @_ZN3fLI7FLAGS_vE, ptr noundef @.str, i32 noundef %2)
  br label %cond.end

cond.false:                                       ; preds = %if.then
  %3 = load ptr, ptr @_ZZN8proxygen10HTTP2Codec25generateConnectionPrefaceERN5folly10IOBufQueueEE8vlocal__, align 8
  %4 = load i32, ptr %3, align 4
  %5 = load i32, ptr %verbose_level__, align 4
  %cmp3 = icmp sge i32 %4, %5
  br label %cond.end

cond.end:                                         ; preds = %cond.false, %cond.true
  %cond = phi i1 [ %call, %cond.true ], [ %cmp3, %cond.false ]
  %frombool = zext i1 %cond to i8
  store i8 %frombool, ptr %tmp, align 1
  %6 = load i8, ptr %tmp, align 1
  %tobool = trunc i8 %6 to i1
  br i1 %tobool, label %cond.false5, label %cond.true4

cond.true4:                                       ; preds = %cond.end
  br label %cond.end11

cond.false5:                                      ; preds = %cond.end
  call void @_ZN6google17LogMessageVoidifyC2Ev(ptr noundef nonnull align 1 dereferenceable(1) %ref.tmp)
  call void @_ZN6google10LogMessageC1EPKci(ptr noundef nonnull align 8 dereferenceable(96) %ref.tmp6, ptr noundef @.str, i32 noundef 1115)
  store i1 true, ptr %cleanup.cond, align 1
  %call7 = invoke noundef nonnull align 8 dereferenceable(8) ptr @_ZN6google10LogMessage6streamEv(ptr noundef nonnull align 8 dereferenceable(96) %ref.tmp6)
          to label %invoke.cont unwind label %lpad

invoke.cont:                                      ; preds = %cond.false5
  %call9 = invoke noundef nonnull align 8 dereferenceable(8) ptr @_ZStlsISt11char_traitsIcEERSt13basic_ostreamIcT_ES5_PKc(ptr noundef nonnull align 8 dereferenceable(8) %call7, ptr noundef @.str.102)
          to label %invoke.cont8 unwind label %lpad

invoke.cont8:                                     ; preds = %invoke.cont
  invoke void @_ZN6google17LogMessageVoidifyanERSo(ptr noundef nonnull align 1 dereferenceable(1) %ref.tmp, ptr noundef nonnull align 8 dereferenceable(8) %call9)
          to label %invoke.cont10 unwind label %lpad

invoke.cont10:                                    ; preds = %invoke.cont8
  br label %cond.end11

cond.end11:                                       ; preds = %invoke.cont10, %cond.true4
  %cleanup.is_active = load i1, ptr %cleanup.cond, align 1
  br i1 %cleanup.is_active, label %cleanup.action, label %cleanup.done

cleanup.action:                                   ; preds = %cond.end11
  call void @_ZN6google10LogMessageD1Ev(ptr noundef nonnull align 8 dereferenceable(96) %ref.tmp6) #3
  br label %cleanup.done

cleanup.done:                                     ; preds = %cleanup.action, %cond.end11
  %7 = load ptr, ptr %writeBuf.addr, align 8
  call void @_ZN5folly5RangeIPKcEC2ISaIcES2_TnNS_6detail13IsCharPointerIT0_E10const_typeELi0EEERKNSt7__cxx1112basic_stringIcSt11char_traitsIcET_EE(ptr noundef nonnull align 8 dereferenceable(16) %agg.tmp, ptr noundef nonnull align 8 dereferenceable(32) @_ZN8proxygen5http218kConnectionPrefaceB5cxx11E)
  %8 = getelementptr inbounds { ptr, ptr }, ptr %agg.tmp, i32 0, i32 0
  %9 = load ptr, ptr %8, align 8
  %10 = getelementptr inbounds { ptr, ptr }, ptr %agg.tmp, i32 0, i32 1
  %11 = load ptr, ptr %10, align 8
  call void @_ZN5folly10IOBufQueue6appendENS_5RangeIPKcEE(ptr noundef nonnull align 8 dereferenceable(72) %7, ptr %9, ptr %11)
  %call15 = call noundef i64 @_ZNKSt7__cxx1112basic_stringIcSt11char_traitsIcESaIcEE6lengthEv(ptr noundef nonnull align 8 dereferenceable(32) @_ZN8proxygen5http218kConnectionPrefaceB5cxx11E) #3
  store i64 %call15, ptr %retval, align 8
  br label %return

lpad:                                             ; preds = %invoke.cont8, %invoke.cont, %cond.false5
  %12 = landingpad { ptr, i32 }
          cleanup
  %13 = extractvalue { ptr, i32 } %12, 0
  store ptr %13, ptr %exn.slot, align 8
  %14 = extractvalue { ptr, i32 } %12, 1
  store i32 %14, ptr %ehselector.slot, align 4
  %cleanup.is_active12 = load i1, ptr %cleanup.cond, align 1
  br i1 %cleanup.is_active12, label %cleanup.action13, label %cleanup.done14

cleanup.action13:                                 ; preds = %lpad
  call void @_ZN6google10LogMessageD1Ev(ptr noundef nonnull align 8 dereferenceable(96) %ref.tmp6) #3
  br label %cleanup.done14

cleanup.done14:                                   ; preds = %cleanup.action13, %lpad
  br label %eh.resume

if.end:                                           ; preds = %entry
  store i64 0, ptr %retval, align 8
  br label %return

return:                                           ; preds = %if.end, %cleanup.done
  %15 = load i64, ptr %retval, align 8
  ret i64 %15

eh.resume:                                        ; preds = %cleanup.done14
  %exn = load ptr, ptr %exn.slot, align 8
  %sel = load i32, ptr %ehselector.slot, align 4
  %lpad.val = insertvalue { ptr, i32 } poison, ptr %exn, 0
  %lpad.val16 = insertvalue { ptr, i32 } %lpad.val, i32 %sel, 1
  resume { ptr, i32 } %lpad.val16
}