; Function Attrs: mustprogress uwtable
define noundef i64 @_ZN8proxygen10HTTP2Codec25generateConnectionPrefaceERN5folly10IOBufQueueE(ptr nocapture noundef nonnull readonly align 8 dereferenceable(1062) %this, ptr noundef nonnull align 8 dereferenceable(72) %writeBuf) unnamed_addr #3 align 2 personality ptr @__gxx_personality_v0 {
entry:
  %ref.tmp6 = alloca %"class.google::LogMessage", align 8
  %transportDirection_ = getelementptr inbounds i8, ptr %this, i64 8
  %0 = load i8, ptr %transportDirection_, align 8
  %cmp = icmp eq i8 %0, 1
  br i1 %cmp, label %if.then, label %return

if.then:                                          ; preds = %entry
  %1 = load ptr, ptr @_ZZN8proxygen10HTTP2Codec25generateConnectionPrefaceERN5folly10IOBufQueueEE8vlocal__, align 8
  %cmp2 = icmp eq ptr %1, null
  br i1 %cmp2, label %cond.true, label %cond.end

cond.true:                                        ; preds = %if.then
  %call = tail call noundef zeroext i1 @_ZN6google11InitVLOG3__EPNS_8SiteFlagEPiPKci(ptr noundef nonnull @_ZZN8proxygen10HTTP2Codec25generateConnectionPrefaceERN5folly10IOBufQueueEE8vlocal__, ptr noundef nonnull @_ZN3fLI7FLAGS_vE, ptr noundef nonnull @.str, i32 noundef 4)
  br i1 %call, label %cond.false5, label %cleanup.done

cond.end:                                         ; preds = %if.then
  %2 = load i32, ptr %1, align 4
  %cmp3 = icmp sgt i32 %2, 3
  br i1 %cmp3, label %cond.false5, label %cleanup.done

cond.false5:                                      ; preds = %cond.true, %cond.end
  call void @_ZN6google10LogMessageC1EPKci(ptr noundef nonnull align 8 dereferenceable(96) %ref.tmp6, ptr noundef nonnull @.str, i32 noundef 1115)
  %call7 = invoke noundef nonnull align 8 dereferenceable(8) ptr @_ZN6google10LogMessage6streamEv(ptr noundef nonnull align 8 dereferenceable(96) %ref.tmp6)
          to label %invoke.cont unwind label %lpad

invoke.cont:                                      ; preds = %cond.false5
  %call9 = invoke noundef nonnull align 8 dereferenceable(8) ptr @_ZStlsISt11char_traitsIcEERSt13basic_ostreamIcT_ES5_PKc(ptr noundef nonnull align 8 dereferenceable(8) %call7, ptr noundef nonnull @.str.102)
          to label %cleanup.action unwind label %lpad

cleanup.action:                                   ; preds = %invoke.cont
  call void @_ZN6google10LogMessageD1Ev(ptr noundef nonnull align 8 dereferenceable(96) %ref.tmp6) #27
  br label %cleanup.done

cleanup.done:                                     ; preds = %cond.true, %cond.end, %cleanup.action
  %call.i = call noundef ptr @_ZNKSt7__cxx1112basic_stringIcSt11char_traitsIcESaIcEE4dataEv(ptr noundef nonnull align 8 dereferenceable(32) @_ZN8proxygen5http218kConnectionPrefaceB5cxx11E) #27
  %call3.i = call noundef i64 @_ZNKSt7__cxx1112basic_stringIcSt11char_traitsIcESaIcEE4sizeEv(ptr noundef nonnull align 8 dereferenceable(32) @_ZN8proxygen5http218kConnectionPrefaceB5cxx11E) #27
  call void @_ZN5folly10IOBufQueue6appendEPKvm(ptr noundef nonnull align 8 dereferenceable(72) %writeBuf, ptr noundef %call.i, i64 noundef %call3.i)
  %call15 = call noundef i64 @_ZNKSt7__cxx1112basic_stringIcSt11char_traitsIcESaIcEE6lengthEv(ptr noundef nonnull align 8 dereferenceable(32) @_ZN8proxygen5http218kConnectionPrefaceB5cxx11E) #27
  br label %return

lpad:                                             ; preds = %invoke.cont, %cond.false5
  %3 = landingpad { ptr, i32 }
          cleanup
  call void @_ZN6google10LogMessageD1Ev(ptr noundef nonnull align 8 dereferenceable(96) %ref.tmp6) #27
  resume { ptr, i32 } %3

return:                                           ; preds = %entry, %cleanup.done
  %retval.0 = phi i64 [ %call15, %cleanup.done ], [ 0, %entry ]
  ret i64 %retval.0
}